; Function Attrs: nounwind sspstrong uwtable
define dso_local ptr @drive_get_by_index(i32 noundef %0, i32 noundef %1) local_unnamed_addr #0 {
  %3 = tail call zeroext i1 @qemu_in_main_thread() #14
  br i1 %3, label %5, label %4

4:                                                ; preds = %2
  tail call void @__assert_fail(ptr noundef nonnull @.str, ptr noundef nonnull @.str.1, i32 noundef 285, ptr noundef nonnull @__PRETTY_FUNCTION__.drive_get_by_index) #15
  unreachable

5:                                                ; preds = %2
  %6 = sext i32 %0 to i64
  %7 = getelementptr inbounds [9 x i32], ptr @if_max_devs, i64 0, i64 %6
  %8 = load i32, ptr %7, align 4
  %.not.i = icmp eq i32 %8, 0
  br i1 %.not.i, label %drive_index_to_unit_id.exit, label %9

9:                                                ; preds = %5
  %10 = sdiv i32 %1, %8
  %11 = srem i32 %1, %8
  br label %drive_index_to_unit_id.exit

drive_index_to_unit_id.exit:                      ; preds = %5, %9
  %12 = phi i32 [ %10, %9 ], [ 0, %5 ]
  %13 = phi i32 [ %11, %9 ], [ %1, %5 ]
  %14 = tail call zeroext i1 @qemu_in_main_thread() #14
  br i1 %14, label %16, label %15

15:                                               ; preds = %drive_index_to_unit_id.exit
  tail call void @__assert_fail(ptr noundef nonnull @.str, ptr noundef nonnull @.str.1, i32 noundef 226, ptr noundef nonnull @__PRETTY_FUNCTION__.drive_get) #15
  unreachable

16:                                               ; preds = %drive_index_to_unit_id.exit
  %17 = tail call ptr @blk_next(ptr noundef null) #14
  %.not14.i = icmp eq ptr %17, null
  br i1 %.not14.i, label %drive_get.exit, label %.lr.ph.i

.lr.ph.i:                                         ; preds = %16, %30
  %.015.i = phi ptr [ %31, %30 ], [ %17, %16 ]
  %18 = tail call ptr @blk_legacy_dinfo(ptr noundef nonnull %.015.i) #14
  %.not13.i = icmp eq ptr %18, null
  br i1 %.not13.i, label %30, label %19

19:                                               ; preds = %.lr.ph.i
  %20 = load i32, ptr %18, align 8
  %21 = icmp eq i32 %20, %0
  br i1 %21, label %22, label %30

22:                                               ; preds = %19
  %23 = getelementptr inbounds nuw i8, ptr %18, i64 4
  %24 = load i32, ptr %23, align 4
  %25 = icmp eq i32 %24, %12
  br i1 %25, label %26, label %30

26:                                               ; preds = %22
  %27 = getelementptr inbounds nuw i8, ptr %18, i64 8
  %28 = load i32, ptr %27, align 8
  %29 = icmp eq i32 %28, %13
  br i1 %29, label %drive_get.exit, label %30

30:                                               ; preds = %26, %22, %19, %.lr.ph.i
  %31 = tail call ptr @blk_next(ptr noundef nonnull %.015.i) #14
  %.not.i6 = icmp eq ptr %31, null
  br i1 %.not.i6, label %drive_get.exit, label %.lr.ph.i, !llvm.loop !9

drive_get.exit:                                   ; preds = %26, %30, %16
  %.011.i = phi ptr [ null, %16 ], [ %18, %26 ], [ null, %30 ]
  ret ptr %.011.i
}